target datalayout = "e-m:e-p270:32:32-p271:32:32-p272:64:64-i64:64-i128:128-f80:128-n8:16:32:64-S128"
target triple = "x86_64-pc-linux-gnu"

%class.OopHandle = type { ptr }
%class.XHeap = type { %class.XWorkers, %class.XObjectAllocator, %class.XPageAllocator, %class.XPageTable, %class.XForwardingTable, [8 x i8], %class.XMark, %class.XReferenceProcessor, %class.XWeakRootsProcessor, %class.XRelocate, %class.XRelocationSet, %class.XUnload, %class.XServiceability, [8 x i8] }
%class.XWorkers = type { %class.WorkerThreads }
%class.WorkerThreads = type { ptr, ptr, ptr, i32, i32, i32, %class.WorkerTaskDispatcher }
%class.WorkerTaskDispatcher = type { ptr, i32, i32, %class.Semaphore, %class.Semaphore }
%class.Semaphore = type { %class.PosixSemaphore }
%class.PosixSemaphore = type { %union.sem_t }
%union.sem_t = type { i64, [24 x i8] }
%class.XObjectAllocator = type { i8, %class.XValue, %class.XValue, %class.XValue, %class.XValue, %class.XValue.3, %class.XValue.4 }
%class.XValue = type { i64 }
%class.XValue.3 = type { i64 }
%class.XValue.4 = type { i64 }
%class.XPageAllocator = type <{ %class.XLock, %class.XPageCache, %class.XVirtualMemoryManager, %class.XPhysicalMemoryManager, i64, i64, i64, i64, i64, i64, i64, i64, i64, %class.XList.8, i64, %class.XList.8, ptr, ptr, %class.XSafeDelete, i8, [7 x i8] }>
%class.XLock = type { %class.PlatformMutex }
%class.PlatformMutex = type { %union.pthread_mutex_t }
%union.pthread_mutex_t = type { %struct.__pthread_mutex_s }
%struct.__pthread_mutex_s = type { i32, i32, i32, i32, i32, i16, i16, %struct.__pthread_internal_list }
%struct.__pthread_internal_list = type { ptr, ptr }
%class.XPageCache = type { %class.XValue.5, %class.XList, %class.XList, i64 }
%class.XValue.5 = type { i64 }
%class.XList = type { %class.XListNode, i64 }
%class.XListNode = type { ptr, ptr }
%class.XVirtualMemoryManager = type <{ %class.XMemoryManager, i64, i8, [7 x i8] }>
%class.XMemoryManager = type { %class.XLock, %class.XList.6, %"struct.XMemoryManager::Callbacks" }
%class.XList.6 = type { %class.XListNode.7, i64 }
%class.XListNode.7 = type { ptr, ptr }
%"struct.XMemoryManager::Callbacks" = type { ptr, ptr, ptr, ptr, ptr, ptr }
%class.XPhysicalMemoryManager = type { %class.XPhysicalMemoryBacking, %class.XMemoryManager }
%class.XPhysicalMemoryBacking = type <{ i32, [4 x i8], i64, i64, i64, i64, i8, [7 x i8] }>
%class.XList.8 = type { %class.XListNode.9, i64 }
%class.XListNode.9 = type { ptr, ptr }
%class.XSafeDelete = type { %class.XSafeDeleteImpl, %class.XLock }
%class.XSafeDeleteImpl = type { ptr, i64, %class.GrowableArrayCHeap }
%class.GrowableArrayCHeap = type { %class.GrowableArrayWithAllocator }
%class.GrowableArrayWithAllocator = type { %class.GrowableArrayView }
%class.GrowableArrayView = type { %class.GrowableArrayBase, ptr }
%class.GrowableArrayBase = type { i32, i32 }
%class.XPageTable = type { %class.XGranuleMap }
%class.XGranuleMap = type { i64, ptr }
%class.XForwardingTable = type { %class.XGranuleMap.10 }
%class.XGranuleMap.10 = type { i64, ptr }
%class.XMark = type <{ ptr, ptr, [48 x i8], %class.XMarkStackAllocator, %class.XMarkStripeSet, %class.XMarkTerminate, i8, [7 x i8], i64, i64, i64, i64, i64, i64, i32, [4 x i8] }>
%class.XMarkStackAllocator = type { %class.XStackList, [56 x i8], %class.XMarkStackSpace }
%class.XStackList = type { ptr }
%class.XMarkStackSpace = type { %class.XLock, i64, i64, i64 }
%class.XMarkStripeSet = type { i64, i64, [48 x i8], [16 x %class.XMarkStripe] }
%class.XMarkStripe = type { %class.XStackList.11, [56 x i8], %class.XStackList.11, [56 x i8] }
%class.XStackList.11 = type { ptr }
%class.XMarkTerminate = type { i32, [60 x i8], i32, i32, [56 x i8] }
%class.XReferenceProcessor = type { %class.ReferenceDiscoverer, ptr, ptr, %class.XValue.12, %class.XValue.12, %class.XValue.12, %class.XValue.13, %class.XValue.14, ptr }
%class.ReferenceDiscoverer = type { ptr }
%class.XValue.12 = type { i64 }
%class.XValue.13 = type { i64 }
%class.XValue.14 = type { i64 }
%class.XWeakRootsProcessor = type { ptr }
%class.XRelocate = type { ptr }
%class.XRelocationSet = type { ptr, %class.XForwardingAllocator, ptr, i64 }
%class.XForwardingAllocator = type { ptr, ptr, ptr }
%class.XUnload = type { ptr }
%class.XServiceability = type { i64, i64, %class.XServiceabilityMemoryPool, %class.XServiceabilityMemoryManager, %class.XServiceabilityMemoryManager, ptr }
%class.XServiceabilityMemoryPool = type { %class.CollectedMemoryPool.base, [7 x i8] }
%class.CollectedMemoryPool.base = type { %class.MemoryPool.base }
%class.MemoryPool.base = type <{ ptr, ptr, i32, [4 x i8], i64, i64, i8, [7 x i8], [5 x ptr], i32, [4 x i8], %class.MemoryUsage, %class.MemoryUsage, ptr, ptr, ptr, ptr, %class.OopHandle, i8 }>
%class.MemoryUsage = type { i64, i64, i64, i64 }
%class.XServiceabilityMemoryManager = type { %class.GCMemoryManager.base, i8 }
%class.GCMemoryManager.base = type <{ %class.MemoryManager.base, [7 x i8], i64, %class.elapsedTimer, ptr, ptr, ptr, i32, i8, [10 x i8] }>
%class.MemoryManager.base = type <{ ptr, [10 x ptr], i32, [4 x i8], ptr, %class.OopHandle, i8 }>
%class.elapsedTimer = type <{ i64, i64, i8, [7 x i8] }>
%class.XVirtualMemory = type { i64, i64 }
%class.XRelocationSetIteratorImpl = type { %class.XArrayIteratorImpl.19 }
%class.XArrayIteratorImpl.19 = type { ptr, ptr }
%class.PlatformMonitor = type { %class.PlatformMutex, %union.pthread_cond_t }
%union.pthread_cond_t = type { %struct.__pthread_cond_s }
%struct.__pthread_cond_s = type { %union.__atomic_wide_counter, %union.__atomic_wide_counter, [2 x i32], [2 x i32], i32, i32, [2 x i32] }
%union.__atomic_wide_counter = type { i64 }
%class.XForwarding = type <{ %class.XVirtualMemory, i64, %class.XAttachedArray, ptr, %class.XConditionLock, i32, i8, i8, [2 x i8] }>
%class.XAttachedArray = type { i64 }
%class.XConditionLock = type { %class.PlatformMonitor }

; Function Attrs: mustprogress nounwind uwtable
define linkonce_odr hidden noundef i64 @_ZNK11XGranuleMapIP11XForwardingE16index_for_offsetEm(ptr noundef nonnull align 8 dereferenceable(16) %0, i64 noundef %1) #1 comdat align 2 {
  %3 = alloca ptr, align 8
  %4 = alloca i64, align 8
  %5 = alloca i64, align 8
  store ptr %0, ptr %3, align 8
  store i64 %1, ptr %4, align 8
  %6 = load i64, ptr %4, align 8
  %7 = lshr i64 %6, 21
  store i64 %7, ptr %5, align 8
  %8 = load i64, ptr %5, align 8
  ret i64 %8
}

; Function Attrs: mustprogress nounwind uwtable
define linkonce_odr hidden noundef i64 @_ZNK14XVirtualMemory4sizeEv(ptr noundef nonnull align 8 dereferenceable(16) %0) #1 comdat align 2 {
  %2 = alloca ptr, align 8
  store ptr %0, ptr %2, align 8
  %3 = load ptr, ptr %2, align 8
  %4 = getelementptr inbounds %class.XVirtualMemory, ptr %3, i32 0, i32 1
  %5 = load i64, ptr %4, align 8
  %6 = getelementptr inbounds %class.XVirtualMemory, ptr %3, i32 0, i32 0
  %7 = load i64, ptr %6, align 8
  %8 = sub i64 %5, %7
  ret i64 %8
}

; Function Attrs: mustprogress nounwind uwtable
define linkonce_odr hidden noundef i64 @_ZNK14XVirtualMemory5startEv(ptr noundef nonnull align 8 dereferenceable(16) %0) #1 comdat align 2 {
  %2 = alloca ptr, align 8
  store ptr %0, ptr %2, align 8
  %3 = load ptr, ptr %2, align 8
  %4 = getelementptr inbounds %class.XVirtualMemory, ptr %3, i32 0, i32 0
  %5 = load i64, ptr %4, align 8
  ret i64 %5
}

; Function Attrs: mustprogress nounwind uwtable
define linkonce_odr hidden void @_ZN11XGranuleMapIP11XForwardingE3putEmmS1_(ptr noundef nonnull align 8 dereferenceable(16) %0, i64 noundef %1, i64 noundef %2, ptr noundef %3) #1 comdat align 2 {
  %5 = alloca ptr, align 8
  %6 = alloca i64, align 8
  %7 = alloca i64, align 8
  %8 = alloca ptr, align 8
  %9 = alloca i64, align 8
  %10 = alloca i64, align 8
  %11 = alloca i64, align 8
  store ptr %0, ptr %5, align 8
  store i64 %1, ptr %6, align 8
  store i64 %2, ptr %7, align 8
  store ptr %3, ptr %8, align 8
  %12 = load ptr, ptr %5, align 8
  %13 = load i64, ptr %6, align 8
  %14 = call noundef i64 @_ZNK11XGranuleMapIP11XForwardingE16index_for_offsetEm(ptr noundef nonnull align 8 dereferenceable(16) %12, i64 noundef %13)
  store i64 %14, ptr %9, align 8
  %15 = load i64, ptr %9, align 8
  %16 = load i64, ptr %7, align 8
  %17 = lshr i64 %16, 21
  %18 = add i64 %15, %17
  store i64 %18, ptr %10, align 8
  %19 = load i64, ptr %9, align 8
  store i64 %19, ptr %11, align 8
  br label %20

20:                                               ; preds = %30, %4
  %21 = load i64, ptr %11, align 8
  %22 = load i64, ptr %10, align 8
  %23 = icmp ult i64 %21, %22
  br i1 %23, label %24, label %33

24:                                               ; preds = %20
  %25 = load ptr, ptr %8, align 8
  %26 = getelementptr inbounds %class.XGranuleMap.10, ptr %12, i32 0, i32 1
  %27 = load ptr, ptr %26, align 8
  %28 = load i64, ptr %11, align 8
  %29 = getelementptr inbounds ptr, ptr %27, i64 %28
  store ptr %25, ptr %29, align 8
  br label %30

30:                                               ; preds = %24
  %31 = load i64, ptr %11, align 8
  %32 = add i64 %31, 1
  store i64 %32, ptr %11, align 8
  br label %20, !llvm.loop !18

33:                                               ; preds = %20
  ret void
}

; Function Attrs: mustprogress nounwind uwtable
define linkonce_odr hidden noundef i64 @_ZNK11XForwarding4sizeEv(ptr noundef nonnull align 8 dereferenceable(134) %0) #1 comdat align 2 {
  %2 = alloca ptr, align 8
  store ptr %0, ptr %2, align 8
  %3 = load ptr, ptr %2, align 8
  %4 = getelementptr inbounds %class.XForwarding, ptr %3, i32 0, i32 0
  %5 = call noundef i64 @_ZNK14XVirtualMemory4sizeEv(ptr noundef nonnull align 8 dereferenceable(16) %4)
  ret i64 %5
}

; Function Attrs: mustprogress nounwind uwtable
define linkonce_odr hidden noundef i64 @_ZNK11XForwarding5startEv(ptr noundef nonnull align 8 dereferenceable(134) %0) #1 comdat align 2 {
  %2 = alloca ptr, align 8
  store ptr %0, ptr %2, align 8
  %3 = load ptr, ptr %2, align 8
  %4 = getelementptr inbounds %class.XForwarding, ptr %3, i32 0, i32 0
  %5 = call noundef i64 @_ZNK14XVirtualMemory5startEv(ptr noundef nonnull align 8 dereferenceable(16) %4)
  ret i64 %5
}

; Function Attrs: mustprogress nounwind uwtable
define linkonce_odr hidden noundef zeroext i1 @_ZN18XArrayIteratorImplIP11XForwardingLb0EE11next_serialEPS1_(ptr noundef nonnull align 8 dereferenceable(16) %0, ptr noundef %1) #1 comdat align 2 {
  %3 = alloca i1, align 1
  %4 = alloca ptr, align 8
  %5 = alloca ptr, align 8
  store ptr %0, ptr %4, align 8
  store ptr %1, ptr %5, align 8
  %6 = load ptr, ptr %4, align 8
  %7 = getelementptr inbounds %class.XArrayIteratorImpl.19, ptr %6, i32 0, i32 0
  %8 = load ptr, ptr %7, align 8
  %9 = getelementptr inbounds %class.XArrayIteratorImpl.19, ptr %6, i32 0, i32 1
  %10 = load ptr, ptr %9, align 8
  %11 = icmp eq ptr %8, %10
  br i1 %11, label %12, label %13

12:                                               ; preds = %2
  store i1 false, ptr %3, align 1
  br label %21

13:                                               ; preds = %2
  %14 = getelementptr inbounds %class.XArrayIteratorImpl.19, ptr %6, i32 0, i32 0
  %15 = load ptr, ptr %14, align 8
  %16 = load ptr, ptr %15, align 8
  %17 = load ptr, ptr %5, align 8
  store ptr %16, ptr %17, align 8
  %18 = getelementptr inbounds %class.XArrayIteratorImpl.19, ptr %6, i32 0, i32 0
  %19 = load ptr, ptr %18, align 8
  %20 = getelementptr inbounds ptr, ptr %19, i32 1
  store ptr %20, ptr %18, align 8
  store i1 true, ptr %3, align 1
  br label %21

21:                                               ; preds = %13, %12
  %22 = load i1, ptr %3, align 1
  ret i1 %22
}

; Function Attrs: mustprogress nounwind uwtable
define linkonce_odr hidden void @_ZN18XArrayIteratorImplIP11XForwardingLb0EEC2EPKS1_m(ptr noundef nonnull align 8 dereferenceable(16) %0, ptr noundef %1, i64 noundef %2) unnamed_addr #1 comdat align 2 {
  %4 = alloca ptr, align 8
  %5 = alloca ptr, align 8
  %6 = alloca i64, align 8
  store ptr %0, ptr %4, align 8
  store ptr %1, ptr %5, align 8
  store i64 %2, ptr %6, align 8
  %7 = load ptr, ptr %4, align 8
  %8 = getelementptr inbounds %class.XArrayIteratorImpl.19, ptr %7, i32 0, i32 0
  %9 = load ptr, ptr %5, align 8
  store ptr %9, ptr %8, align 8
  %10 = getelementptr inbounds %class.XArrayIteratorImpl.19, ptr %7, i32 0, i32 1
  %11 = load ptr, ptr %5, align 8
  %12 = load i64, ptr %6, align 8
  %13 = getelementptr inbounds ptr, ptr %11, i64 %12
  store ptr %13, ptr %10, align 8
  ret void
}

; Function Attrs: mustprogress nounwind uwtable
define linkonce_odr hidden void @_ZN16XForwardingTable6removeEP11XForwarding(ptr noundef nonnull align 8 dereferenceable(16) %0, ptr noundef %1) #1 comdat align 2 {
  %3 = alloca ptr, align 8
  %4 = alloca ptr, align 8
  %5 = alloca i64, align 8
  %6 = alloca i64, align 8
  store ptr %0, ptr %3, align 8
  store ptr %1, ptr %4, align 8
  %7 = load ptr, ptr %3, align 8
  %8 = load ptr, ptr %4, align 8
  %9 = call noundef i64 @_ZNK11XForwarding5startEv(ptr noundef nonnull align 8 dereferenceable(134) %8)
  store i64 %9, ptr %5, align 8
  %10 = load ptr, ptr %4, align 8
  %11 = call noundef i64 @_ZNK11XForwarding4sizeEv(ptr noundef nonnull align 8 dereferenceable(134) %10)
  store i64 %11, ptr %6, align 8
  %12 = getelementptr inbounds %class.XForwardingTable, ptr %7, i32 0, i32 0
  %13 = load i64, ptr %5, align 8
  %14 = load i64, ptr %6, align 8
  call void @_ZN11XGranuleMapIP11XForwardingE3putEmmS1_(ptr noundef nonnull align 8 dereferenceable(16) %12, i64 noundef %13, i64 noundef %14, ptr noundef null)
  ret void
}

; Function Attrs: mustprogress nounwind uwtable
define linkonce_odr hidden noundef zeroext i1 @_ZN18XArrayIteratorImplIP11XForwardingLb0EE4nextEPS1_(ptr noundef nonnull align 8 dereferenceable(16) %0, ptr noundef %1) #1 comdat align 2 {
  %3 = alloca ptr, align 8
  %4 = alloca ptr, align 8
  store ptr %0, ptr %3, align 8
  store ptr %1, ptr %4, align 8
  %5 = load ptr, ptr %3, align 8
  %6 = load ptr, ptr %4, align 8
  %7 = call noundef zeroext i1 @_ZN18XArrayIteratorImplIP11XForwardingLb0EE11next_serialEPS1_(ptr noundef nonnull align 8 dereferenceable(16) %5, ptr noundef %6)
  ret i1 %7
}

; Function Attrs: mustprogress nounwind uwtable
define linkonce_odr hidden void @_ZN26XRelocationSetIteratorImplILb0EEC2EP14XRelocationSet(ptr noundef nonnull align 8 dereferenceable(16) %0, ptr noundef %1) unnamed_addr #1 comdat align 2 {
  %3 = alloca ptr, align 8
  %4 = alloca ptr, align 8
  store ptr %0, ptr %3, align 8
  store ptr %1, ptr %4, align 8
  %5 = load ptr, ptr %3, align 8
  %6 = load ptr, ptr %4, align 8
  %7 = getelementptr inbounds %class.XRelocationSet, ptr %6, i32 0, i32 2
  %8 = load ptr, ptr %7, align 8
  %9 = load ptr, ptr %4, align 8
  %10 = getelementptr inbounds %class.XRelocationSet, ptr %9, i32 0, i32 3
  %11 = load i64, ptr %10, align 8
  call void @_ZN18XArrayIteratorImplIP11XForwardingLb0EEC2EPKS1_m(ptr noundef nonnull align 8 dereferenceable(16) %5, ptr noundef %8, i64 noundef %11)
  ret void
}

; Function Attrs: mustprogress nounwind uwtable
define hidden void @_ZN5XHeap20reset_relocation_setEv(ptr noundef nonnull align 64 dereferenceable(4088) %0) #1 align 2 {
  %2 = alloca ptr, align 8
  %3 = alloca %class.XRelocationSetIteratorImpl, align 8
  %4 = alloca ptr, align 8
  store ptr %0, ptr %2, align 8
  %5 = load ptr, ptr %2, align 8
  %6 = getelementptr inbounds %class.XHeap, ptr %5, i32 0, i32 10
  call void @_ZN26XRelocationSetIteratorImplILb0EEC2EP14XRelocationSet(ptr noundef nonnull align 8 dereferenceable(16) %3, ptr noundef %6)
  br label %7

7:                                                ; preds = %9, %1
  %8 = call noundef zeroext i1 @_ZN18XArrayIteratorImplIP11XForwardingLb0EE4nextEPS1_(ptr noundef nonnull align 8 dereferenceable(16) %3, ptr noundef %4)
  br i1 %8, label %9, label %12

9:                                                ; preds = %7
  %10 = getelementptr inbounds %class.XHeap, ptr %5, i32 0, i32 4
  %11 = load ptr, ptr %4, align 8
  call void @_ZN16XForwardingTable6removeEP11XForwarding(ptr noundef nonnull align 8 dereferenceable(16) %10, ptr noundef %11)
  br label %7, !llvm.loop !11

12:                                               ; preds = %7
  %13 = getelementptr inbounds %class.XHeap, ptr %5, i32 0, i32 10
  call void @_ZN14XRelocationSet5resetEv(ptr noundef nonnull align 8 dereferenceable(48) %13)
  ret void
}