; Function Attrs: mustprogress nounwind uwtable
define hidden void @_ZN5XHeap20reset_relocation_setEv(ptr noundef nonnull align 64 dereferenceable(4088) %0) local_unnamed_addr #1 align 2 {
  %2 = getelementptr inbounds i8, ptr %0, i64 3448
  %3 = load ptr, ptr %2, align 8
  %4 = getelementptr inbounds i8, ptr %0, i64 3456
  %5 = load i64, ptr %4, align 64
  %6 = getelementptr inbounds ptr, ptr %3, i64 %5
  %.not6 = icmp eq i64 %5, 0
  br i1 %.not6, label %_ZN18XArrayIteratorImplIP11XForwardingLb0EE4nextEPS1_.exit, label %.lr.ph

.lr.ph:                                           ; preds = %1
  %7 = getelementptr inbounds i8, ptr %0, i64 816
  br label %8

8:                                                ; preds = %.lr.ph, %_ZN16XForwardingTable6removeEP11XForwarding.exit
  %.sroa.0.07 = phi ptr [ %3, %.lr.ph ], [ %10, %_ZN16XForwardingTable6removeEP11XForwarding.exit ]
  %9 = load ptr, ptr %.sroa.0.07, align 8
  %10 = getelementptr inbounds i8, ptr %.sroa.0.07, i64 8
  %11 = load i64, ptr %9, align 8
  %12 = getelementptr inbounds i8, ptr %9, i64 8
  %13 = load i64, ptr %12, align 8
  %14 = sub i64 %13, %11
  %15 = lshr i64 %11, 21
  %16 = lshr i64 %14, 21
  %17 = add nuw nsw i64 %16, %15
  %.not.i.i = icmp ult i64 %14, 2097152
  br i1 %.not.i.i, label %_ZN16XForwardingTable6removeEP11XForwarding.exit, label %.lr.ph.i.i

.lr.ph.i.i:                                       ; preds = %8, %.lr.ph.i.i
  %.09.i.i = phi i64 [ %20, %.lr.ph.i.i ], [ %15, %8 ]
  %18 = load ptr, ptr %7, align 16
  %19 = getelementptr inbounds ptr, ptr %18, i64 %.09.i.i
  store ptr null, ptr %19, align 8
  %20 = add nuw nsw i64 %.09.i.i, 1
  %21 = icmp ult i64 %20, %17
  br i1 %21, label %.lr.ph.i.i, label %_ZN16XForwardingTable6removeEP11XForwarding.exit, !llvm.loop !13

_ZN16XForwardingTable6removeEP11XForwarding.exit: ; preds = %.lr.ph.i.i, %8
  %.not = icmp eq ptr %10, %6
  br i1 %.not, label %_ZN18XArrayIteratorImplIP11XForwardingLb0EE4nextEPS1_.exit, label %8, !llvm.loop !15

_ZN18XArrayIteratorImplIP11XForwardingLb0EE4nextEPS1_.exit: ; preds = %_ZN16XForwardingTable6removeEP11XForwarding.exit, %1
  %22 = getelementptr inbounds i8, ptr %0, i64 3416
  tail call void @_ZN14XRelocationSet5resetEv(ptr noundef nonnull align 8 dereferenceable(48) %22) #12
  ret void
}